; ModuleID = '21/1653.c'
source_filename = "21/1653.c"
target datalayout = "e-m:e-p270:32:32-p271:32:32-p272:64:64-i64:64-f80:128-n8:16:32:64-S128"
target triple = "x86_64-pc-linux-gnu"

@.str = private unnamed_addr constant [3 x i8] c"%d\00", align 1
@.str.1 = private unnamed_addr constant [6 x i8] c"%d,%d\00", align 1

; Function Attrs: noinline nounwind uwtable
define dso_local void @main() #0 {
  %1 = alloca i32, align 4
  %2 = alloca i32, align 4
  %3 = alloca i32, align 4
  %4 = alloca i32, align 4
  %5 = alloca i32, align 4
  %6 = alloca i32, align 4
  store i32 0, i32* %6, align 4
  %7 = call i32 (i8*, ...) @__isoc99_scanf(i8* getelementptr inbounds ([3 x i8], [3 x i8]* @.str, i64 0, i64 0), i32* %5)
  %8 = call i32 (i8*, ...) @__isoc99_scanf(i8* getelementptr inbounds ([3 x i8], [3 x i8]* @.str, i64 0, i64 0), i32* %1)
  %9 = load i32, i32* %1, align 4
  store i32 %9, i32* %2, align 4
  %10 = load i32, i32* %1, align 4
  store i32 %10, i32* %6, align 4
  store i32 1, i32* %4, align 4
  br label %11

11:                                               ; preds = %33, %0
  %12 = load i32, i32* %4, align 4
  %13 = load i32, i32* %5, align 4
  %14 = icmp slt i32 %12, %13
  br i1 %14, label %15, label %36

15:                                               ; preds = %11
  %16 = call i32 (i8*, ...) @__isoc99_scanf(i8* getelementptr inbounds ([3 x i8], [3 x i8]* @.str, i64 0, i64 0), i32* %3)
  %17 = load i32, i32* %3, align 4
  %18 = load i32, i32* %1, align 4
  %19 = icmp sgt i32 %17, %18
  br i1 %19, label %20, label %22

20:                                               ; preds = %15
  %21 = load i32, i32* %3, align 4
  store i32 %21, i32* %1, align 4
  br label %29

22:                                               ; preds = %15
  %23 = load i32, i32* %3, align 4
  %24 = load i32, i32* %2, align 4
  %25 = icmp slt i32 %23, %24
  br i1 %25, label %26, label %28

26:                                               ; preds = %22
  %27 = load i32, i32* %3, align 4
  store i32 %27, i32* %2, align 4
  br label %28

28:                                               ; preds = %26, %22
  br label %29

29:                                               ; preds = %28, %20
  %30 = load i32, i32* %6, align 4
  %31 = load i32, i32* %3, align 4
  %32 = add nsw i32 %30, %31
  store i32 %32, i32* %6, align 4
  br label %33

33:                                               ; preds = %29
  %34 = load i32, i32* %4, align 4
  %35 = add nsw i32 %34, 1
  store i32 %35, i32* %4, align 4
  br label %11

36:                                               ; preds = %11
  %37 = load i32, i32* %2, align 4
  %38 = load i32, i32* %5, align 4
  %39 = mul nsw i32 %37, %38
  %40 = load i32, i32* %6, align 4
  %41 = sub nsw i32 %39, %40
  %42 = call i32 @abs(i32 %41) #3
  %43 = load i32, i32* %1, align 4
  %44 = load i32, i32* %5, align 4
  %45 = mul nsw i32 %43, %44
  %46 = load i32, i32* %6, align 4
  %47 = sub nsw i32 %45, %46
  %48 = call i32 @abs(i32 %47) #3
  %49 = icmp eq i32 %42, %48
  br i1 %49, label %50, label %54

50:                                               ; preds = %36
  %51 = load i32, i32* %2, align 4
  %52 = load i32, i32* %1, align 4
  %53 = call i32 (i8*, ...) @printf(i8* getelementptr inbounds ([6 x i8], [6 x i8]* @.str.1, i64 0, i64 0), i32 %51, i32 %52)
  br label %75

54:                                               ; preds = %36
  %55 = load i32, i32* %2, align 4
  %56 = load i32, i32* %5, align 4
  %57 = mul nsw i32 %55, %56
  %58 = load i32, i32* %6, align 4
  %59 = sub nsw i32 %57, %58
  %60 = call i32 @abs(i32 %59) #3
  %61 = load i32, i32* %1, align 4
  %62 = load i32, i32* %5, align 4
  %63 = mul nsw i32 %61, %62
  %64 = load i32, i32* %6, align 4
  %65 = sub nsw i32 %63, %64
  %66 = call i32 @abs(i32 %65) #3
  %67 = icmp slt i32 %60, %66
  br i1 %67, label %68, label %71

68:                                               ; preds = %54
  %69 = load i32, i32* %1, align 4
  %70 = call i32 (i8*, ...) @printf(i8* getelementptr inbounds ([3 x i8], [3 x i8]* @.str, i64 0, i64 0), i32 %69)
  br label %74

71:                                               ; preds = %54
  %72 = load i32, i32* %2, align 4
  %73 = call i32 (i8*, ...) @printf(i8* getelementptr inbounds ([3 x i8], [3 x i8]* @.str, i64 0, i64 0), i32 %72)
  br label %74

74:                                               ; preds = %71, %68
  br label %75

75:                                               ; preds = %74, %50
  ret void
}

declare dso_local i32 @__isoc99_scanf(i8*, ...) #1

; Function Attrs: nounwind readnone
declare dso_local i32 @abs(i32) #2

declare dso_local i32 @printf(i8*, ...) #1


!llvm.module.flags = !{!0}
!llvm.ident = !{!1}

!0 = !{i32 1, !"wchar_size", i32 4}
!1 = !{!"clang version 10.0.0-4ubuntu1 "}
