; ModuleID = 'source-C-CXX/20/1653.c'
source_filename = "source-C-CXX/20/1653.c"
target datalayout = "e-m:e-p270:32:32-p271:32:32-p272:64:64-i64:64-f80:128-n8:16:32:64-S128"
target triple = "x86_64-pc-linux-gnu"

@.str = private unnamed_addr constant [3 x i8] c"%d\00", align 1
@.str.1 = private unnamed_addr constant [6 x i8] c"%d,%d\00", align 1

; Function Attrs: nofree nounwind sspstrong uwtable
define dso_local void @main() local_unnamed_addr #0 {
  %1 = alloca i32, align 4
  %2 = alloca i32, align 4
  %3 = alloca i32, align 4
  %4 = bitcast i32* %1 to i8*
  call void @llvm.lifetime.start.p0i8(i64 4, i8* nonnull %4) #4
  %5 = bitcast i32* %2 to i8*
  call void @llvm.lifetime.start.p0i8(i64 4, i8* nonnull %5) #4
  %6 = bitcast i32* %3 to i8*
  call void @llvm.lifetime.start.p0i8(i64 4, i8* nonnull %6) #4
  %7 = call i32 (i8*, ...) @__isoc99_scanf(i8* getelementptr inbounds ([3 x i8], [3 x i8]* @.str, i64 0, i64 0), i32* nonnull %3)
  %8 = call i32 (i8*, ...) @__isoc99_scanf(i8* getelementptr inbounds ([3 x i8], [3 x i8]* @.str, i64 0, i64 0), i32* nonnull %1)
  %9 = load i32, i32* %1, align 4, !tbaa !5
  %10 = load i32, i32* %3, align 4, !tbaa !5
  %11 = icmp sgt i32 %10, 1
  br i1 %11, label %12, label %31

12:                                               ; preds = %0, %24
  %13 = phi i32 [ %27, %24 ], [ %9, %0 ]
  %14 = phi i32 [ %28, %24 ], [ 1, %0 ]
  %15 = phi i32 [ %26, %24 ], [ %9, %0 ]
  %16 = call i32 (i8*, ...) @__isoc99_scanf(i8* getelementptr inbounds ([3 x i8], [3 x i8]* @.str, i64 0, i64 0), i32* nonnull %2)
  %17 = load i32, i32* %2, align 4, !tbaa !5
  %18 = load i32, i32* %1, align 4, !tbaa !5
  %19 = icmp sgt i32 %17, %18
  br i1 %19, label %20, label %21

20:                                               ; preds = %12
  store i32 %17, i32* %1, align 4, !tbaa !5
  br label %24

21:                                               ; preds = %12
  %22 = icmp slt i32 %17, %15
  %23 = select i1 %22, i32 %17, i32 %15
  br label %24

24:                                               ; preds = %21, %20
  %25 = phi i32 [ %17, %20 ], [ %18, %21 ]
  %26 = phi i32 [ %15, %20 ], [ %23, %21 ]
  %27 = add nsw i32 %17, %13
  %28 = add nuw nsw i32 %14, 1
  %29 = load i32, i32* %3, align 4, !tbaa !5
  %30 = icmp slt i32 %28, %29
  br i1 %30, label %12, label %31, !llvm.loop !9

31:                                               ; preds = %24, %0
  %32 = phi i32 [ %9, %0 ], [ %25, %24 ]
  %33 = phi i32 [ %9, %0 ], [ %26, %24 ]
  %34 = phi i32 [ %9, %0 ], [ %27, %24 ]
  %35 = phi i32 [ %10, %0 ], [ %29, %24 ]
  %36 = mul nsw i32 %35, %33
  %37 = sub nsw i32 %36, %34
  %38 = call i32 @llvm.abs.i32(i32 %37, i1 true)
  %39 = mul nsw i32 %32, %35
  %40 = sub nsw i32 %39, %34
  %41 = call i32 @llvm.abs.i32(i32 %40, i1 true)
  %42 = icmp eq i32 %38, %41
  br i1 %42, label %43, label %45

43:                                               ; preds = %31
  %44 = call i32 (i8*, ...) @printf(i8* nonnull dereferenceable(1) getelementptr inbounds ([6 x i8], [6 x i8]* @.str.1, i64 0, i64 0), i32 %33, i32 %32)
  br label %51

45:                                               ; preds = %31
  %46 = icmp ult i32 %38, %41
  br i1 %46, label %47, label %49

47:                                               ; preds = %45
  %48 = call i32 (i8*, ...) @printf(i8* nonnull dereferenceable(1) getelementptr inbounds ([3 x i8], [3 x i8]* @.str, i64 0, i64 0), i32 %32)
  br label %51

49:                                               ; preds = %45
  %50 = call i32 (i8*, ...) @printf(i8* nonnull dereferenceable(1) getelementptr inbounds ([3 x i8], [3 x i8]* @.str, i64 0, i64 0), i32 %33)
  br label %51

51:                                               ; preds = %47, %49, %43
  call void @llvm.lifetime.end.p0i8(i64 4, i8* nonnull %6) #4
  call void @llvm.lifetime.end.p0i8(i64 4, i8* nonnull %5) #4
  call void @llvm.lifetime.end.p0i8(i64 4, i8* nonnull %4) #4
  ret void
}

; Function Attrs: argmemonly mustprogress nofree nosync nounwind willreturn
declare void @llvm.lifetime.start.p0i8(i64 immarg, i8* nocapture) #1

; Function Attrs: nofree nounwind
declare noundef i32 @__isoc99_scanf(i8* nocapture noundef readonly, ...) local_unnamed_addr #2

; Function Attrs: nofree nounwind
declare noundef i32 @printf(i8* nocapture noundef readonly, ...) local_unnamed_addr #2

; Function Attrs: argmemonly mustprogress nofree nosync nounwind willreturn
declare void @llvm.lifetime.end.p0i8(i64 immarg, i8* nocapture) #1

; Function Attrs: nofree nosync nounwind readnone speculatable willreturn
declare i32 @llvm.abs.i32(i32, i1 immarg) #3


!llvm.module.flags = !{!0, !1, !2, !3}
!llvm.ident = !{!4}

!0 = !{i32 1, !"wchar_size", i32 4}
!1 = !{i32 7, !"PIC Level", i32 2}
!2 = !{i32 7, !"PIE Level", i32 2}
!3 = !{i32 7, !"uwtable", i32 1}
!4 = !{!"clang version 13.0.0"}
!5 = !{!6, !6, i64 0}
!6 = !{!"int", !7, i64 0}
!7 = !{!"omnipotent char", !8, i64 0}
!8 = !{!"Simple C/C++ TBAA"}
!9 = distinct !{!9, !10}
!10 = !{!"llvm.loop.mustprogress"}
